target datalayout = "e-m:e-p270:32:32-p271:32:32-p272:64:64-i64:64-i128:128-f80:128-n8:16:32:64-S128"
target triple = "x86_64-pc-linux-gnu"

%"struct.std::atomic" = type { %"struct.std::__atomic_base" }
%"struct.std::__atomic_base" = type { i64 }
%"class.folly::Executor::KeepAlive" = type { i64 }
%"class.folly::StrandExecutor" = type { %"class.folly::SerializedExecutor", %"struct.std::atomic", %"class.folly::Executor::KeepAlive", %"class.std::shared_ptr" }
%"class.folly::SerializedExecutor" = type { %"class.folly::SequencedExecutor" }
%"class.folly::SequencedExecutor" = type { %"class.folly::Executor" }
%"class.folly::Executor" = type { ptr }
%"class.std::shared_ptr" = type { %"class.std::__shared_ptr" }
%"class.std::__shared_ptr" = type { ptr, %"class.std::__shared_count" }
%"class.std::__shared_count" = type { ptr }

; Function Attrs: mustprogress nounwind uwtable
define linkonce_odr noundef ptr @_ZNK5folly8Executor9KeepAliveIS0_E3getEv(ptr noundef nonnull align 8 dereferenceable(8) %0) #0 comdat align 2 {
  %2 = alloca ptr, align 8
  store ptr %0, ptr %2, align 8, !tbaa !270
  %3 = load ptr, ptr %2, align 8
  %4 = getelementptr inbounds nuw %"class.folly::Executor::KeepAlive", ptr %3, i32 0, i32 0
  %5 = load i64, ptr %4, align 8, !tbaa !272
  %6 = and i64 %5, -4
  %7 = inttoptr i64 %6 to ptr
  ret ptr %7
}

; Function Attrs: mustprogress nounwind uwtable
define linkonce_odr noundef ptr @_ZNK5folly8Executor9KeepAliveIS0_EptEv(ptr noundef nonnull align 8 dereferenceable(8) %0) #0 comdat align 2 {
  %2 = alloca ptr, align 8
  store ptr %0, ptr %2, align 8, !tbaa !270
  %3 = load ptr, ptr %2, align 8
  %4 = call noundef ptr @_ZNK5folly8Executor9KeepAliveIS0_E3getEv(ptr noundef nonnull align 8 dereferenceable(8) %3)
  ret ptr %4
}

; Function Attrs: mustprogress uwtable
define noundef zeroext i8 @_ZNK5folly14StrandExecutor16getNumPrioritiesEv(ptr noundef nonnull align 8 dereferenceable(40) %0) unnamed_addr #4 align 2 {
  %2 = alloca ptr, align 8
  store ptr %0, ptr %2, align 8, !tbaa !16
  %3 = load ptr, ptr %2, align 8
  %4 = getelementptr inbounds nuw %"class.folly::StrandExecutor", ptr %3, i32 0, i32 2
  %5 = call noundef ptr @_ZNK5folly8Executor9KeepAliveIS0_EptEv(ptr noundef nonnull align 8 dereferenceable(8) %4)
  %6 = load ptr, ptr %5, align 8, !tbaa !21
  %7 = getelementptr inbounds ptr, ptr %6, i64 4
  %8 = load ptr, ptr %7, align 8
  %9 = call noundef zeroext i8 %8(ptr noundef nonnull align 8 dereferenceable(8) %5)
  ret i8 %9
}

; Function Attrs: uwtable
define noundef zeroext i8 @_ZTv0_n48_NK5folly14StrandExecutor16getNumPrioritiesEv(ptr noundef %0) unnamed_addr #36 align 2 {
  %2 = alloca ptr, align 8
  store ptr %0, ptr %2, align 8, !tbaa !16
  %3 = load ptr, ptr %2, align 8
  %4 = load ptr, ptr %3, align 8, !tbaa !21
  %5 = getelementptr inbounds i8, ptr %4, i64 -48
  %6 = load i64, ptr %5, align 8
  %7 = getelementptr inbounds i8, ptr %3, i64 %6
  %8 = tail call noundef zeroext i8 @_ZNK5folly14StrandExecutor16getNumPrioritiesEv(ptr noundef nonnull align 8 dereferenceable(40) %7)
  ret i8 %8
}