; Function Attrs: uwtable
define noundef zeroext i8 @_ZTv0_n48_NK5folly14StrandExecutor16getNumPrioritiesEv(ptr noundef readonly captures(none) %0) unnamed_addr #33 align 2 {
  %2 = load ptr, ptr %0, align 8, !tbaa !17
  %3 = getelementptr inbounds i8, ptr %2, i64 -48
  %4 = load i64, ptr %3, align 8
  %5 = getelementptr inbounds i8, ptr %0, i64 %4
  %6 = getelementptr inbounds nuw i8, ptr %5, i64 16
  %7 = load i64, ptr %6, align 8, !tbaa !22
  %8 = and i64 %7, -4
  %9 = inttoptr i64 %8 to ptr
  %10 = load ptr, ptr %9, align 8, !tbaa !17
  %11 = getelementptr inbounds nuw i8, ptr %10, i64 32
  %12 = load ptr, ptr %11, align 8
  %13 = tail call noundef zeroext i8 %12(ptr noundef nonnull align 8 dereferenceable(8) %9)
  ret i8 %13
}